target datalayout = "e-m:e-p270:32:32-p271:32:32-p272:64:64-i64:64-f80:128-n8:16:32:64-S128"
target triple = "x86_64-pc-linux-gnu"

@.str = private unnamed_addr constant [5 x i8] c"%d%d\00", align 1
@.str.1 = private unnamed_addr constant [4 x i8] c"%d \00", align 1
@.str.2 = private unnamed_addr constant [4 x i8] c"%d\0A\00", align 1

; Function Attrs: noinline nounwind uwtable
define dso_local i32 @main() #0 {
  %1 = alloca i32, align 4
  %2 = alloca i32, align 4
  %3 = alloca i32, align 4
  %4 = alloca [100 x [100 x i32]], align 16
  %5 = alloca [100 x [100 x i32]], align 16
  %6 = alloca i32, align 4
  %7 = alloca i32, align 4
  %8 = alloca i32, align 4
  store i32 0, i32* %1, align 4
  %9 = bitcast [100 x [100 x i32]]* %4 to i8*
  call void @llvm.memset.p0i8.i64(i8* align 16 %9, i8 0, i64 40000, i1 false)
  %10 = bitcast [100 x [100 x i32]]* %5 to i8*
  call void @llvm.memset.p0i8.i64(i8* align 16 %10, i8 0, i64 40000, i1 false)
  %11 = call i32 (i8*, ...) @__isoc99_scanf(i8* getelementptr inbounds ([5 x i8], [5 x i8]* @.str, i64 0, i64 0), i32* %2, i32* %3)
  %12 = load i32, i32* %2, align 4
  %13 = getelementptr inbounds [100 x [100 x i32]], [100 x [100 x i32]]* %4, i64 0, i64 4
  %14 = getelementptr inbounds [100 x i32], [100 x i32]* %13, i64 0, i64 4
  store i32 %12, i32* %14, align 16
  %15 = load i32, i32* %2, align 4
  %16 = getelementptr inbounds [100 x [100 x i32]], [100 x [100 x i32]]* %5, i64 0, i64 4
  %17 = getelementptr inbounds [100 x i32], [100 x i32]* %16, i64 0, i64 4
  store i32 %15, i32* %17, align 16
  store i32 0, i32* %6, align 4
  br label %18

18:                                               ; preds = %225, %0
  %19 = load i32, i32* %6, align 4
  %20 = load i32, i32* %3, align 4
  %21 = icmp slt i32 %19, %20
  br i1 %21, label %22, label %228

22:                                               ; preds = %18
  store i32 0, i32* %7, align 4
  br label %23

23:                                               ; preds = %192, %22
  %24 = load i32, i32* %7, align 4
  %25 = icmp slt i32 %24, 9
  br i1 %25, label %26, label %195

26:                                               ; preds = %23
  store i32 0, i32* %8, align 4
  br label %27

27:                                               ; preds = %188, %26
  %28 = load i32, i32* %8, align 4
  %29 = icmp slt i32 %28, 9
  br i1 %29, label %30, label %191

30:                                               ; preds = %27
  %31 = load i32, i32* %7, align 4
  %32 = sext i32 %31 to i64
  %33 = getelementptr inbounds [100 x [100 x i32]], [100 x [100 x i32]]* %4, i64 0, i64 %32
  %34 = load i32, i32* %8, align 4
  %35 = sext i32 %34 to i64
  %36 = getelementptr inbounds [100 x i32], [100 x i32]* %33, i64 0, i64 %35
  %37 = load i32, i32* %36, align 4
  %38 = icmp ne i32 %37, 0
  br i1 %38, label %39, label %187

39:                                               ; preds = %30
  %40 = load i32, i32* %7, align 4
  %41 = sext i32 %40 to i64
  %42 = getelementptr inbounds [100 x [100 x i32]], [100 x [100 x i32]]* %4, i64 0, i64 %41
  %43 = load i32, i32* %8, align 4
  %44 = sext i32 %43 to i64
  %45 = getelementptr inbounds [100 x i32], [100 x i32]* %42, i64 0, i64 %44
  %46 = load i32, i32* %45, align 4
  %47 = load i32, i32* %7, align 4
  %48 = sub nsw i32 %47, 1
  %49 = sext i32 %48 to i64
  %50 = getelementptr inbounds [100 x [100 x i32]], [100 x [100 x i32]]* %5, i64 0, i64 %49
  %51 = load i32, i32* %8, align 4
  %52 = sext i32 %51 to i64
  %53 = getelementptr inbounds [100 x i32], [100 x i32]* %50, i64 0, i64 %52
  %54 = load i32, i32* %53, align 4
  %55 = add nsw i32 %54, %46
  store i32 %55, i32* %53, align 4
  %56 = load i32, i32* %7, align 4
  %57 = sext i32 %56 to i64
  %58 = getelementptr inbounds [100 x [100 x i32]], [100 x [100 x i32]]* %4, i64 0, i64 %57
  %59 = load i32, i32* %8, align 4
  %60 = sext i32 %59 to i64
  %61 = getelementptr inbounds [100 x i32], [100 x i32]* %58, i64 0, i64 %60
  %62 = load i32, i32* %61, align 4
  %63 = load i32, i32* %7, align 4
  %64 = sext i32 %63 to i64
  %65 = getelementptr inbounds [100 x [100 x i32]], [100 x [100 x i32]]* %5, i64 0, i64 %64
  %66 = load i32, i32* %8, align 4
  %67 = sub nsw i32 %66, 1
  %68 = sext i32 %67 to i64
  %69 = getelementptr inbounds [100 x i32], [100 x i32]* %65, i64 0, i64 %68
  %70 = load i32, i32* %69, align 4
  %71 = add nsw i32 %70, %62
  store i32 %71, i32* %69, align 4
  %72 = load i32, i32* %7, align 4
  %73 = sext i32 %72 to i64
  %74 = getelementptr inbounds [100 x [100 x i32]], [100 x [100 x i32]]* %4, i64 0, i64 %73
  %75 = load i32, i32* %8, align 4
  %76 = sext i32 %75 to i64
  %77 = getelementptr inbounds [100 x i32], [100 x i32]* %74, i64 0, i64 %76
  %78 = load i32, i32* %77, align 4
  %79 = load i32, i32* %7, align 4
  %80 = add nsw i32 %79, 1
  %81 = sext i32 %80 to i64
  %82 = getelementptr inbounds [100 x [100 x i32]], [100 x [100 x i32]]* %5, i64 0, i64 %81
  %83 = load i32, i32* %8, align 4
  %84 = sext i32 %83 to i64
  %85 = getelementptr inbounds [100 x i32], [100 x i32]* %82, i64 0, i64 %84
  %86 = load i32, i32* %85, align 4
  %87 = add nsw i32 %86, %78
  store i32 %87, i32* %85, align 4
  %88 = load i32, i32* %7, align 4
  %89 = sext i32 %88 to i64
  %90 = getelementptr inbounds [100 x [100 x i32]], [100 x [100 x i32]]* %4, i64 0, i64 %89
  %91 = load i32, i32* %8, align 4
  %92 = sext i32 %91 to i64
  %93 = getelementptr inbounds [100 x i32], [100 x i32]* %90, i64 0, i64 %92
  %94 = load i32, i32* %93, align 4
  %95 = load i32, i32* %7, align 4
  %96 = sext i32 %95 to i64
  %97 = getelementptr inbounds [100 x [100 x i32]], [100 x [100 x i32]]* %5, i64 0, i64 %96
  %98 = load i32, i32* %8, align 4
  %99 = add nsw i32 %98, 1
  %100 = sext i32 %99 to i64
  %101 = getelementptr inbounds [100 x i32], [100 x i32]* %97, i64 0, i64 %100
  %102 = load i32, i32* %101, align 4
  %103 = add nsw i32 %102, %94
  store i32 %103, i32* %101, align 4
  %104 = load i32, i32* %7, align 4
  %105 = sext i32 %104 to i64
  %106 = getelementptr inbounds [100 x [100 x i32]], [100 x [100 x i32]]* %4, i64 0, i64 %105
  %107 = load i32, i32* %8, align 4
  %108 = sext i32 %107 to i64
  %109 = getelementptr inbounds [100 x i32], [100 x i32]* %106, i64 0, i64 %108
  %110 = load i32, i32* %109, align 4
  %111 = load i32, i32* %7, align 4
  %112 = add nsw i32 %111, 1
  %113 = sext i32 %112 to i64
  %114 = getelementptr inbounds [100 x [100 x i32]], [100 x [100 x i32]]* %5, i64 0, i64 %113
  %115 = load i32, i32* %8, align 4
  %116 = sub nsw i32 %115, 1
  %117 = sext i32 %116 to i64
  %118 = getelementptr inbounds [100 x i32], [100 x i32]* %114, i64 0, i64 %117
  %119 = load i32, i32* %118, align 4
  %120 = add nsw i32 %119, %110
  store i32 %120, i32* %118, align 4
  %121 = load i32, i32* %7, align 4
  %122 = sext i32 %121 to i64
  %123 = getelementptr inbounds [100 x [100 x i32]], [100 x [100 x i32]]* %4, i64 0, i64 %122
  %124 = load i32, i32* %8, align 4
  %125 = sext i32 %124 to i64
  %126 = getelementptr inbounds [100 x i32], [100 x i32]* %123, i64 0, i64 %125
  %127 = load i32, i32* %126, align 4
  %128 = load i32, i32* %7, align 4
  %129 = add nsw i32 %128, 1
  %130 = sext i32 %129 to i64
  %131 = getelementptr inbounds [100 x [100 x i32]], [100 x [100 x i32]]* %5, i64 0, i64 %130
  %132 = load i32, i32* %8, align 4
  %133 = add nsw i32 %132, 1
  %134 = sext i32 %133 to i64
  %135 = getelementptr inbounds [100 x i32], [100 x i32]* %131, i64 0, i64 %134
  %136 = load i32, i32* %135, align 4
  %137 = add nsw i32 %136, %127
  store i32 %137, i32* %135, align 4
  %138 = load i32, i32* %7, align 4
  %139 = sext i32 %138 to i64
  %140 = getelementptr inbounds [100 x [100 x i32]], [100 x [100 x i32]]* %4, i64 0, i64 %139
  %141 = load i32, i32* %8, align 4
  %142 = sext i32 %141 to i64
  %143 = getelementptr inbounds [100 x i32], [100 x i32]* %140, i64 0, i64 %142
  %144 = load i32, i32* %143, align 4
  %145 = load i32, i32* %7, align 4
  %146 = sub nsw i32 %145, 1
  %147 = sext i32 %146 to i64
  %148 = getelementptr inbounds [100 x [100 x i32]], [100 x [100 x i32]]* %5, i64 0, i64 %147
  %149 = load i32, i32* %8, align 4
  %150 = add nsw i32 %149, 1
  %151 = sext i32 %150 to i64
  %152 = getelementptr inbounds [100 x i32], [100 x i32]* %148, i64 0, i64 %151
  %153 = load i32, i32* %152, align 4
  %154 = add nsw i32 %153, %144
  store i32 %154, i32* %152, align 4
  %155 = load i32, i32* %7, align 4
  %156 = sext i32 %155 to i64
  %157 = getelementptr inbounds [100 x [100 x i32]], [100 x [100 x i32]]* %4, i64 0, i64 %156
  %158 = load i32, i32* %8, align 4
  %159 = sext i32 %158 to i64
  %160 = getelementptr inbounds [100 x i32], [100 x i32]* %157, i64 0, i64 %159
  %161 = load i32, i32* %160, align 4
  %162 = load i32, i32* %7, align 4
  %163 = sub nsw i32 %162, 1
  %164 = sext i32 %163 to i64
  %165 = getelementptr inbounds [100 x [100 x i32]], [100 x [100 x i32]]* %5, i64 0, i64 %164
  %166 = load i32, i32* %8, align 4
  %167 = sub nsw i32 %166, 1
  %168 = sext i32 %167 to i64
  %169 = getelementptr inbounds [100 x i32], [100 x i32]* %165, i64 0, i64 %168
  %170 = load i32, i32* %169, align 4
  %171 = add nsw i32 %170, %161
  store i32 %171, i32* %169, align 4
  %172 = load i32, i32* %7, align 4
  %173 = sext i32 %172 to i64
  %174 = getelementptr inbounds [100 x [100 x i32]], [100 x [100 x i32]]* %4, i64 0, i64 %173
  %175 = load i32, i32* %8, align 4
  %176 = sext i32 %175 to i64
  %177 = getelementptr inbounds [100 x i32], [100 x i32]* %174, i64 0, i64 %176
  %178 = load i32, i32* %177, align 4
  %179 = load i32, i32* %7, align 4
  %180 = sext i32 %179 to i64
  %181 = getelementptr inbounds [100 x [100 x i32]], [100 x [100 x i32]]* %5, i64 0, i64 %180
  %182 = load i32, i32* %8, align 4
  %183 = sext i32 %182 to i64
  %184 = getelementptr inbounds [100 x i32], [100 x i32]* %181, i64 0, i64 %183
  %185 = load i32, i32* %184, align 4
  %186 = add nsw i32 %185, %178
  store i32 %186, i32* %184, align 4
  br label %187

187:                                              ; preds = %39, %30
  br label %188

188:                                              ; preds = %187
  %189 = load i32, i32* %8, align 4
  %190 = add nsw i32 %189, 1
  store i32 %190, i32* %8, align 4
  br label %27

191:                                              ; preds = %27
  br label %192

192:                                              ; preds = %191
  %193 = load i32, i32* %7, align 4
  %194 = add nsw i32 %193, 1
  store i32 %194, i32* %7, align 4
  br label %23

195:                                              ; preds = %23
  store i32 0, i32* %7, align 4
  br label %196

196:                                              ; preds = %221, %195
  %197 = load i32, i32* %7, align 4
  %198 = icmp slt i32 %197, 9
  br i1 %198, label %199, label %224

199:                                              ; preds = %196
  store i32 0, i32* %8, align 4
  br label %200

200:                                              ; preds = %217, %199
  %201 = load i32, i32* %8, align 4
  %202 = icmp slt i32 %201, 9
  br i1 %202, label %203, label %220

203:                                              ; preds = %200
  %204 = load i32, i32* %7, align 4
  %205 = sext i32 %204 to i64
  %206 = getelementptr inbounds [100 x [100 x i32]], [100 x [100 x i32]]* %5, i64 0, i64 %205
  %207 = load i32, i32* %8, align 4
  %208 = sext i32 %207 to i64
  %209 = getelementptr inbounds [100 x i32], [100 x i32]* %206, i64 0, i64 %208
  %210 = load i32, i32* %209, align 4
  %211 = load i32, i32* %7, align 4
  %212 = sext i32 %211 to i64
  %213 = getelementptr inbounds [100 x [100 x i32]], [100 x [100 x i32]]* %4, i64 0, i64 %212
  %214 = load i32, i32* %8, align 4
  %215 = sext i32 %214 to i64
  %216 = getelementptr inbounds [100 x i32], [100 x i32]* %213, i64 0, i64 %215
  store i32 %210, i32* %216, align 4
  br label %217

217:                                              ; preds = %203
  %218 = load i32, i32* %8, align 4
  %219 = add nsw i32 %218, 1
  store i32 %219, i32* %8, align 4
  br label %200

220:                                              ; preds = %200
  br label %221

221:                                              ; preds = %220
  %222 = load i32, i32* %7, align 4
  %223 = add nsw i32 %222, 1
  store i32 %223, i32* %7, align 4
  br label %196

224:                                              ; preds = %196
  br label %225

225:                                              ; preds = %224
  %226 = load i32, i32* %6, align 4
  %227 = add nsw i32 %226, 1
  store i32 %227, i32* %6, align 4
  br label %18

228:                                              ; preds = %18
  store i32 0, i32* %7, align 4
  br label %229

229:                                              ; preds = %255, %228
  %230 = load i32, i32* %7, align 4
  %231 = icmp slt i32 %230, 9
  br i1 %231, label %232, label %258

232:                                              ; preds = %229
  store i32 0, i32* %8, align 4
  br label %233

233:                                              ; preds = %245, %232
  %234 = load i32, i32* %8, align 4
  %235 = icmp slt i32 %234, 8
  br i1 %235, label %236, label %248

236:                                              ; preds = %233
  %237 = load i32, i32* %7, align 4
  %238 = sext i32 %237 to i64
  %239 = getelementptr inbounds [100 x [100 x i32]], [100 x [100 x i32]]* %4, i64 0, i64 %238
  %240 = load i32, i32* %8, align 4
  %241 = sext i32 %240 to i64
  %242 = getelementptr inbounds [100 x i32], [100 x i32]* %239, i64 0, i64 %241
  %243 = load i32, i32* %242, align 4
  %244 = call i32 (i8*, ...) @printf(i8* getelementptr inbounds ([4 x i8], [4 x i8]* @.str.1, i64 0, i64 0), i32 %243)
  br label %245

245:                                              ; preds = %236
  %246 = load i32, i32* %8, align 4
  %247 = add nsw i32 %246, 1
  store i32 %247, i32* %8, align 4
  br label %233

248:                                              ; preds = %233
  %249 = load i32, i32* %7, align 4
  %250 = sext i32 %249 to i64
  %251 = getelementptr inbounds [100 x [100 x i32]], [100 x [100 x i32]]* %4, i64 0, i64 %250
  %252 = getelementptr inbounds [100 x i32], [100 x i32]* %251, i64 0, i64 8
  %253 = load i32, i32* %252, align 16
  %254 = call i32 (i8*, ...) @printf(i8* getelementptr inbounds ([4 x i8], [4 x i8]* @.str.2, i64 0, i64 0), i32 %253)
  br label %255

255:                                              ; preds = %248
  %256 = load i32, i32* %7, align 4
  %257 = add nsw i32 %256, 1
  store i32 %257, i32* %7, align 4
  br label %229

258:                                              ; preds = %229
  ret i32 0
}